; Function Attrs: nounwind uwtable
define dso_local void @reftable_free(ptr noundef %0) local_unnamed_addr #0 {
  %2 = load ptr, ptr @reftable_free_ptr, align 8, !tbaa !4
  %.not = icmp eq ptr %2, null
  br i1 %.not, label %4, label %3

3:                                                ; preds = %1
  tail call void %2(ptr noundef %0) #20
  br label %5

4:                                                ; preds = %1
  tail call void @free(ptr noundef %0) #20
  br label %5

5:                                                ; preds = %4, %3
  ret void
}